; Function Attrs: inlinehint mustprogress nofree norecurse nosync nounwind willreturn memory(argmem: readwrite) uwtable
define internal fastcc void @x64_mulmod2(ptr noundef nonnull captures(none) %0, i64 noundef %1, ptr noundef nonnull captures(none) %2, i64 noundef %3, i64 noundef %4) unnamed_addr #4 {
  %6 = load i64, ptr %0, align 8, !tbaa !3
  %7 = zext i64 %6 to i128
  %8 = zext i64 %1 to i128
  %9 = mul nuw i128 %7, %8
  %10 = lshr i128 %9, 64
  %11 = trunc nuw i128 %10 to i64
  %12 = trunc i128 %9 to i64
  %13 = and i64 %4, 4294967296
  %.not.i = icmp eq i64 %13, 0
  br i1 %.not.i, label %22, label %14

14:                                               ; preds = %5
  %15 = lshr i64 %11, 32
  %16 = sub i64 %12, %11
  %17 = icmp ugt i64 %11, %12
  %18 = sext i1 %17 to i64
  %spec.select.i = add nsw i64 %15, %18
  %19 = shl i64 %11, 32
  %20 = add i64 %19, %16
  %21 = icmp ult i64 %20, %19
  br label %x64_mulmod.exit

22:                                               ; preds = %5
  %23 = and i64 %4, 17179869184
  %.not62.i = icmp eq i64 %23, 0
  %24 = sub i64 %12, %11
  %25 = icmp ugt i64 %11, %12
  %26 = sext i1 %25 to i64
  br i1 %.not62.i, label %40, label %27

27:                                               ; preds = %22
  %28 = lshr i64 %11, 30
  %spec.select104.i = add nsw i64 %28, %26
  %29 = shl i64 %11, 34
  %30 = add i64 %29, %24
  %31 = icmp ult i64 %30, %29
  %32 = zext i1 %31 to i64
  %.5.i = add nsw i64 %spec.select104.i, %32
  %33 = lshr i64 %.5.i, 30
  %34 = sub i64 %30, %.5.i
  %35 = icmp ugt i64 %.5.i, %30
  %36 = sext i1 %35 to i64
  %.6.i = add nsw i64 %33, %36
  %37 = shl i64 %.5.i, 34
  %38 = add i64 %37, %34
  %39 = icmp ult i64 %38, %37
  br label %x64_mulmod.exit

40:                                               ; preds = %22
  %41 = lshr i64 %11, 24
  %spec.select105.i = add nsw i64 %41, %26
  %42 = shl i64 %11, 40
  %43 = add i64 %42, %24
  %44 = icmp ult i64 %43, %42
  %45 = zext i1 %44 to i64
  %.11.i = add nsw i64 %spec.select105.i, %45
  %46 = lshr i64 %.11.i, 24
  %47 = sub i64 %43, %.11.i
  %48 = icmp ugt i64 %.11.i, %43
  %49 = sext i1 %48 to i64
  %.12.i = add nsw i64 %46, %49
  %50 = shl i64 %.11.i, 40
  %51 = add i64 %50, %47
  %52 = icmp ult i64 %51, %50
  br label %x64_mulmod.exit

x64_mulmod.exit:                                  ; preds = %14, %27, %40
  %.sink128.i = phi i1 [ %52, %40 ], [ %39, %27 ], [ %21, %14 ]
  %.12.sink.i = phi i64 [ %.12.i, %40 ], [ %.6.i, %27 ], [ %spec.select.i, %14 ]
  %.sink126.i = phi i64 [ 24, %40 ], [ 30, %27 ], [ 32, %14 ]
  %.sink123.i = phi i64 [ %51, %40 ], [ %38, %27 ], [ %20, %14 ]
  %.sink.i = phi i64 [ 40, %40 ], [ 34, %27 ], [ 32, %14 ]
  %53 = zext i1 %.sink128.i to i64
  %.13.i = add nsw i64 %.12.sink.i, %53
  %54 = lshr i64 %.13.i, %.sink126.i
  %55 = sub i64 %.sink123.i, %.13.i
  %56 = icmp ugt i64 %.13.i, %.sink123.i
  %57 = sext i1 %56 to i64
  %.14.i = add nsw i64 %54, %57
  %58 = shl i64 %.13.i, %.sink.i
  %59 = add i64 %58, %55
  %60 = icmp ult i64 %59, %58
  %.neg110.i = sext i1 %60 to i64
  %.not63.i = icmp eq i64 %.14.i, %.neg110.i
  %.not64.i = icmp ult i64 %59, %4
  %or.cond70.i = select i1 %.not63.i, i1 %.not64.i, i1 false
  %61 = select i1 %or.cond70.i, i64 0, i64 %4
  %spec.select108.i = sub i64 %59, %61
  store i64 %spec.select108.i, ptr %0, align 8, !tbaa !3
  %62 = load i64, ptr %2, align 8, !tbaa !3
  %63 = zext i64 %62 to i128
  %64 = zext i64 %3 to i128
  %65 = mul nuw i128 %63, %64
  %66 = lshr i128 %65, 64
  %67 = trunc nuw i128 %66 to i64
  %68 = trunc i128 %65 to i64
  br i1 %.not.i, label %77, label %69

69:                                               ; preds = %x64_mulmod.exit
  %70 = lshr i64 %67, 32
  %71 = sub i64 %68, %67
  %72 = icmp ugt i64 %67, %68
  %73 = sext i1 %72 to i64
  %spec.select.i8 = add nsw i64 %70, %73
  %74 = shl i64 %67, 32
  %75 = add i64 %74, %71
  %76 = icmp ult i64 %75, %74
  br label %x64_mulmod.exit28

77:                                               ; preds = %x64_mulmod.exit
  %78 = and i64 %4, 17179869184
  %.not62.i21 = icmp eq i64 %78, 0
  %79 = sub i64 %68, %67
  %80 = icmp ugt i64 %67, %68
  %81 = sext i1 %80 to i64
  br i1 %.not62.i21, label %95, label %82

82:                                               ; preds = %77
  %83 = lshr i64 %67, 30
  %spec.select104.i22 = add nsw i64 %83, %81
  %84 = shl i64 %67, 34
  %85 = add i64 %84, %79
  %86 = icmp ult i64 %85, %84
  %87 = zext i1 %86 to i64
  %.5.i23 = add nsw i64 %spec.select104.i22, %87
  %88 = lshr i64 %.5.i23, 30
  %89 = sub i64 %85, %.5.i23
  %90 = icmp ugt i64 %.5.i23, %85
  %91 = sext i1 %90 to i64
  %.6.i24 = add nsw i64 %88, %91
  %92 = shl i64 %.5.i23, 34
  %93 = add i64 %92, %89
  %94 = icmp ult i64 %93, %92
  br label %x64_mulmod.exit28

95:                                               ; preds = %77
  %96 = lshr i64 %67, 24
  %spec.select105.i25 = add nsw i64 %96, %81
  %97 = shl i64 %67, 40
  %98 = add i64 %97, %79
  %99 = icmp ult i64 %98, %97
  %100 = zext i1 %99 to i64
  %.11.i26 = add nsw i64 %spec.select105.i25, %100
  %101 = lshr i64 %.11.i26, 24
  %102 = sub i64 %98, %.11.i26
  %103 = icmp ugt i64 %.11.i26, %98
  %104 = sext i1 %103 to i64
  %.12.i27 = add nsw i64 %101, %104
  %105 = shl i64 %.11.i26, 40
  %106 = add i64 %105, %102
  %107 = icmp ult i64 %106, %105
  br label %x64_mulmod.exit28

x64_mulmod.exit28:                                ; preds = %69, %82, %95
  %.sink128.i9 = phi i1 [ %107, %95 ], [ %94, %82 ], [ %76, %69 ]
  %.12.sink.i10 = phi i64 [ %.12.i27, %95 ], [ %.6.i24, %82 ], [ %spec.select.i8, %69 ]
  %.sink126.i11 = phi i64 [ 24, %95 ], [ 30, %82 ], [ 32, %69 ]
  %.sink123.i12 = phi i64 [ %106, %95 ], [ %93, %82 ], [ %75, %69 ]
  %.sink.i13 = phi i64 [ 40, %95 ], [ 34, %82 ], [ 32, %69 ]
  %108 = zext i1 %.sink128.i9 to i64
  %.13.i14 = add nsw i64 %.12.sink.i10, %108
  %109 = lshr i64 %.13.i14, %.sink126.i11
  %110 = sub i64 %.sink123.i12, %.13.i14
  %111 = icmp ugt i64 %.13.i14, %.sink123.i12
  %112 = sext i1 %111 to i64
  %.14.i15 = add nsw i64 %109, %112
  %113 = shl i64 %.13.i14, %.sink.i13
  %114 = add i64 %113, %110
  %115 = icmp ult i64 %114, %113
  %.neg110.i16 = sext i1 %115 to i64
  %.not63.i17 = icmp eq i64 %.14.i15, %.neg110.i16
  %.not64.i18 = icmp ult i64 %114, %4
  %or.cond70.i19 = select i1 %.not63.i17, i1 %.not64.i18, i1 false
  %116 = select i1 %or.cond70.i19, i64 0, i64 %4
  %spec.select108.i20 = sub i64 %114, %116
  store i64 %spec.select108.i20, ptr %2, align 8, !tbaa !3
  ret void
}